
 VPIO

 Start         Length     Name                   Class
 0001:00000000 000000000H CODE32                 CODE 32-bit
 0001:00000000 000000058H _TEXT                  CODE 32-bit
               at offset 00000000 00058H bytes from vdh.lib (vdhint.asm)

 0002:00000000 00000005CH CINIT_TEXT             CODE 32-bit
               at offset 00000000 0005CH bytes from pioinit.obj (PIOINIT.C)

 0003:00000000 000000118H CSWAP_TEXT             CODE 32-bit
               at offset 00000000 00060H bytes from piouser.obj (PIOUSER.C)
               at offset 00000060 00084H bytes from pioin.obj (pioin.c)
               at offset 000000E4 00034H bytes from pioout.obj (PIOOUT.C)

 0004:00000000 000000031H _IOSEG                 CODE 32-bit
               at offset 00000000 00031H bytes from ioseg.obj (ioseg.asm)

 0005:00000000 000000000H CINIT_DATA             CINITDATA 32-bit
 0005:00000000 000000000H CSWAP_DATA             CSWAPDATA 32-bit
 0005:00000000 000000000H MVDMINSTDATA           MIDATA 32-bit
 0005:00000000 000000000H SWAPINSTDATA           SIDATA 32-bit
 0005:00000000 00000000CH DATA32                 DATA 32-bit
               at offset 00000000 0000CH bytes from pioinit.obj (PIOINIT.C)

 0005:0000000C 000000000H _DATA                  DATA 32-bit
 0005:0000000C 00000001CH CSWAP_DATA             DATA 32-bit
               at offset 00000000 00014H bytes from piouser.obj (PIOUSER.C)
               at offset 00000014 00008H bytes from piodata.obj (PIODATA.C)

 0005:00000028 00000000CH SWAPINSTDATA           DATA 32-bit
               at offset 00000000 0000CH bytes from piodata.obj (PIODATA.C)

 0005:00000034 000000000H CONST32                CONST 32-bit
 0005:00000034 000000000H CONST                  CONST 32-bit
 0005:00000034 000000000H _BSS                   BSS 32-bit
 0005:00000034 000000000H c_common               BSS 32-bit

 Origin   Group
 0005:0   DGROUP
 0000:0   FLAT

  Address         Publics by Name

 0005:00000030       current_VDM
 0004:00000000       INP
 0005:0000000C       Ioh
 0004:00000014       OUTP
 0005:00000028       owner_VDM
 0003:00000000       PIOCREATE
 0003:00000060       PIODATAIN
 0003:000000E4       PIODATAOUT
 0003:00000038       PIOTERMINATE
 0002:00000054       PIO_PDDPROC
 0005:00000020       PPIOPDDProc
 0003:00000094       REQUESTDIRECT
 0005:0000002C       Resp
 0001:00000048       VDHBSF
 0001:00000030       VDHBTR
 0001:00000018       VDHBTS
 0000:00000000  Imp  VDHINSTALLIOHOOK     (MVDM.14)
 0000:00000000  Imp  VDHINSTALLUSERHOOK   (MVDM.3)
 0001:00000000       VdhInt3
 0000:00000000  Imp  VDHKILLVDM           (MVDM.5)
 0000:00000000  Imp  VDHOPENPDD           (MVDM.23)
 0000:00000000  Imp  VDHPOPUP             (MVDM.4)
 0000:00000000  Imp  VDHREMOVEIOHOOK      (MVDM.15)
 0001:00000005       VDHRESTOREFLAGS
 0001:00000002       VDHSAVEFLAGS
 0000:00000000  Imp  VDHSETIOHOOKSTATE    (MVDM.16)
 0001:00000009       VDHXCHG
 0002:00000000       _PIOINIT

  Address         Publics by Value

 0000:00000000  Imp  VDHKILLVDM           (MVDM.5)
 0000:00000000  Imp  VDHPOPUP             (MVDM.4)
 0000:00000000  Imp  VDHSETIOHOOKSTATE    (MVDM.16)
 0000:00000000  Imp  VDHINSTALLUSERHOOK   (MVDM.3)
 0000:00000000  Imp  VDHOPENPDD           (MVDM.23)
 0000:00000000  Imp  VDHREMOVEIOHOOK      (MVDM.15)
 0000:00000000  Imp  VDHINSTALLIOHOOK     (MVDM.14)
 0001:00000000       VdhInt3
 0001:00000002       VDHSAVEFLAGS
 0001:00000005       VDHRESTOREFLAGS
 0001:00000009       VDHXCHG
 0001:00000018       VDHBTS
 0001:00000030       VDHBTR
 0001:00000048       VDHBSF
 0002:00000000       _PIOINIT
 0002:00000054       PIO_PDDPROC
 0003:00000000       PIOCREATE
 0003:00000038       PIOTERMINATE
 0003:00000060       PIODATAIN
 0003:00000094       REQUESTDIRECT
 0003:000000E4       PIODATAOUT
 0004:00000000       INP
 0004:00000014       OUTP
 0005:0000000C       Ioh
 0005:00000020       PPIOPDDProc
 0005:00000028       owner_VDM
 0005:0000002C       Resp
 0005:00000030       current_VDM

Program entry point at 0002:0000
